target datalayout = "e-m:e-p270:32:32-p271:32:32-p272:64:64-i64:64-i128:128-f80:128-n8:16:32:64-S128"
target triple = "x86_64-unknown-linux-gnu"

%"class.sat::literal" = type { i32 }
%class.svector.5 = type { %class.vector.6 }
%class.vector.6 = type { ptr }
%"class.pb::solver" = type <{ %"class.euf::th_solver", %"class.pb::solver_interface", ptr, %class.pb_util, ptr, ptr, %"struct.pb::solver::stats", [4 x i8], %class.small_object_allocator, %class.ptr_vector.3, %class.ptr_vector.3, %class.ptr_vector.3, %class.svector.5, i32, i32, i32, i32, %class.svector.7, %class.svector.5, i32, [4 x i8], %class.tracked_uint_set, %class.svector.11, %class.svector.11, i32, [4 x i8], %class.svector.5, %class.svector.11, %class.svector.5, %"struct.pb::solver::ba_sort", %class.psort_nw, %class.vector.13, %"class.sat::use_list", i8, i8, i8, [5 x i8], %class.svector.11, %class.svector.15, %class.svector.5, %class.svector.17, i32, i8, [3 x i8], %"struct.pb::solver::ineq", %"struct.pb::solver::ineq", %"struct.pb::solver::ineq", i8, [7 x i8] }>
%"class.euf::th_solver" = type { %"class.sat::extension", %"class.euf::th_model_builder", %"class.euf::th_decompile", %"class.euf::th_internalizer", ptr }
%"class.sat::extension" = type { ptr, i8, i32, %class.symbol, ptr }
%class.symbol = type { ptr }
%"class.euf::th_model_builder" = type { ptr }
%"class.euf::th_decompile" = type { ptr }
%"class.euf::th_internalizer" = type { ptr, %class.ptr_vector, %class.svector }
%class.ptr_vector = type { %class.vector }
%class.vector = type { ptr }
%class.svector = type { %class.vector.0 }
%class.vector.0 = type { ptr }
%"class.pb::solver_interface" = type { ptr }
%class.pb_util = type { ptr, i32, %class.vector.1, %class.vector.2, %class.rational }
%class.vector.1 = type { ptr }
%class.vector.2 = type { ptr }
%class.rational = type { %class.mpq }
%class.mpq = type { %class.mpz, %class.mpz }
%class.mpz = type { i32, i8, ptr }
%"struct.pb::solver::stats" = type { i32, i32, i32, i32, i32, i32, i32, i32, i32, i32, i32 }
%class.small_object_allocator = type { [32 x ptr], [32 x ptr], i64 }
%class.ptr_vector.3 = type { %class.vector.4 }
%class.vector.4 = type { ptr }
%class.svector.7 = type { %class.vector.8 }
%class.vector.8 = type { ptr }
%class.tracked_uint_set = type { %class.svector.9, %class.svector.5 }
%class.svector.9 = type { %class.vector.10 }
%class.vector.10 = type { ptr }
%"struct.pb::solver::ba_sort" = type { ptr, %"class.sat::literal", %class.svector.11 }
%class.psort_nw = type { %struct.sorting_network_config, ptr, i32, %"struct.psort_nw<pb::solver::ba_sort>::stats" }
%struct.sorting_network_config = type { i32 }
%"struct.psort_nw<pb::solver::ba_sort>::stats" = type { i32, i32, i32 }
%class.vector.13 = type { ptr }
%"class.sat::use_list" = type { %class.vector.14 }
%class.vector.14 = type { ptr }
%class.svector.11 = type { %class.vector.12 }
%class.vector.12 = type { ptr }
%class.svector.15 = type { %class.vector.16 }
%class.vector.16 = type { ptr }
%class.svector.17 = type { %class.vector.18 }
%class.vector.18 = type { ptr }
%"struct.pb::solver::ineq" = type { %class.svector.17, i64 }

; Function Attrs: mustprogress nounwind uwtable
define linkonce_odr hidden noundef i32 @_ZNK6vectorIjLb0EjE8capacityEv(ptr noundef nonnull align 8 dereferenceable(8) %this) #4 comdat align 2 {
entry:
  %retval = alloca i32, align 4
  %this.addr = alloca ptr, align 8
  store ptr %this, ptr %this.addr, align 8
  %this1 = load ptr, ptr %this.addr, align 8
  %m_data = getelementptr inbounds %class.vector.6, ptr %this1, i32 0, i32 0
  %0 = load ptr, ptr %m_data, align 8
  %cmp = icmp eq ptr %0, null
  br i1 %cmp, label %if.then, label %if.end

if.then:                                          ; preds = %entry
  store i32 0, ptr %retval, align 4
  br label %return

if.end:                                           ; preds = %entry
  %m_data2 = getelementptr inbounds %class.vector.6, ptr %this1, i32 0, i32 0
  %1 = load ptr, ptr %m_data2, align 8
  %arrayidx = getelementptr inbounds i32, ptr %1, i64 -2
  %2 = load i32, ptr %arrayidx, align 4
  store i32 %2, ptr %retval, align 4
  br label %return

return:                                           ; preds = %if.end, %if.then
  %3 = load i32, ptr %retval, align 4
  ret i32 %3
}

; Function Attrs: mustprogress nounwind uwtable
define linkonce_odr hidden void @_ZN6vectorIjLb0EjE6shrinkEj(ptr noundef nonnull align 8 dereferenceable(8) %this, i32 noundef %s) #4 comdat align 2 {
entry:
  %this.addr = alloca ptr, align 8
  %s.addr = alloca i32, align 4
  store ptr %this, ptr %this.addr, align 8
  store i32 %s, ptr %s.addr, align 4
  %this1 = load ptr, ptr %this.addr, align 8
  %m_data = getelementptr inbounds %class.vector.6, ptr %this1, i32 0, i32 0
  %0 = load ptr, ptr %m_data, align 8
  %tobool = icmp ne ptr %0, null
  br i1 %tobool, label %if.then, label %if.else

if.then:                                          ; preds = %entry
  %1 = load i32, ptr %s.addr, align 4
  %m_data2 = getelementptr inbounds %class.vector.6, ptr %this1, i32 0, i32 0
  %2 = load ptr, ptr %m_data2, align 8
  %arrayidx = getelementptr inbounds i32, ptr %2, i64 -1
  store i32 %1, ptr %arrayidx, align 4
  br label %if.end

if.else:                                          ; preds = %entry
  br label %if.end

if.end:                                           ; preds = %if.else, %if.then
  ret void
}

; Function Attrs: mustprogress uwtable
define linkonce_odr hidden void @_ZN6vectorIjLb0EjE6resizeIiEEvjT_z(ptr noundef nonnull align 8 dereferenceable(8) %this, i32 noundef %s, i32 noundef %args, ...) #5 comdat align 2 {
entry:
  %this.addr = alloca ptr, align 8
  %s.addr = alloca i32, align 4
  %args.addr = alloca i32, align 4
  %sz = alloca i32, align 4
  %it = alloca ptr, align 8
  %end = alloca ptr, align 8
  store ptr %this, ptr %this.addr, align 8
  store i32 %s, ptr %s.addr, align 4
  store i32 %args, ptr %args.addr, align 4
  %this1 = load ptr, ptr %this.addr, align 8
  %call = call noundef i32 @_ZNK6vectorIjLb0EjE4sizeEv(ptr noundef nonnull align 8 dereferenceable(8) %this1)
  store i32 %call, ptr %sz, align 4
  %0 = load i32, ptr %s.addr, align 4
  %1 = load i32, ptr %sz, align 4
  %cmp = icmp ule i32 %0, %1
  br i1 %cmp, label %if.then, label %if.end

if.then:                                          ; preds = %entry
  %2 = load i32, ptr %s.addr, align 4
  call void @_ZN6vectorIjLb0EjE6shrinkEj(ptr noundef nonnull align 8 dereferenceable(8) %this1, i32 noundef %2)
  br label %for.end

if.end:                                           ; preds = %entry
  br label %while.cond

while.cond:                                       ; preds = %while.body, %if.end
  %3 = load i32, ptr %s.addr, align 4
  %call2 = call noundef i32 @_ZNK6vectorIjLb0EjE8capacityEv(ptr noundef nonnull align 8 dereferenceable(8) %this1)
  %cmp3 = icmp ugt i32 %3, %call2
  br i1 %cmp3, label %while.body, label %while.end

while.body:                                       ; preds = %while.cond
  call void @_ZN6vectorIjLb0EjE13expand_vectorEv(ptr noundef nonnull align 8 dereferenceable(8) %this1)
  br label %while.cond, !llvm.loop !8

while.end:                                        ; preds = %while.cond
  %4 = load i32, ptr %s.addr, align 4
  %m_data = getelementptr inbounds %class.vector.6, ptr %this1, i32 0, i32 0
  %5 = load ptr, ptr %m_data, align 8
  %arrayidx = getelementptr inbounds i32, ptr %5, i64 -1
  store i32 %4, ptr %arrayidx, align 4
  %m_data4 = getelementptr inbounds %class.vector.6, ptr %this1, i32 0, i32 0
  %6 = load ptr, ptr %m_data4, align 8
  %7 = load i32, ptr %sz, align 4
  %idx.ext = zext i32 %7 to i64
  %add.ptr = getelementptr inbounds i32, ptr %6, i64 %idx.ext
  store ptr %add.ptr, ptr %it, align 8
  %m_data5 = getelementptr inbounds %class.vector.6, ptr %this1, i32 0, i32 0
  %8 = load ptr, ptr %m_data5, align 8
  %9 = load i32, ptr %s.addr, align 4
  %idx.ext6 = zext i32 %9 to i64
  %add.ptr7 = getelementptr inbounds i32, ptr %8, i64 %idx.ext6
  store ptr %add.ptr7, ptr %end, align 8
  br label %for.cond

for.cond:                                         ; preds = %for.inc, %while.end
  %10 = load ptr, ptr %it, align 8
  %11 = load ptr, ptr %end, align 8
  %cmp8 = icmp ne ptr %10, %11
  br i1 %cmp8, label %for.body, label %for.end

for.body:                                         ; preds = %for.cond
  %12 = load ptr, ptr %it, align 8
  %13 = load i32, ptr %args.addr, align 4
  store i32 %13, ptr %12, align 4
  br label %for.inc

for.inc:                                          ; preds = %for.body
  %14 = load ptr, ptr %it, align 8
  %incdec.ptr = getelementptr inbounds i32, ptr %14, i32 1
  store ptr %incdec.ptr, ptr %it, align 8
  br label %for.cond, !llvm.loop !9

for.end:                                          ; preds = %for.cond, %if.then
  ret void
}

; Function Attrs: mustprogress nounwind uwtable
define linkonce_odr hidden noundef i32 @_ZNK6vectorIjLb0EjE4sizeEv(ptr noundef nonnull align 8 dereferenceable(8) %this) #4 comdat align 2 {
entry:
  %retval = alloca i32, align 4
  %this.addr = alloca ptr, align 8
  store ptr %this, ptr %this.addr, align 8
  %this1 = load ptr, ptr %this.addr, align 8
  %m_data = getelementptr inbounds %class.vector.6, ptr %this1, i32 0, i32 0
  %0 = load ptr, ptr %m_data, align 8
  %cmp = icmp eq ptr %0, null
  br i1 %cmp, label %if.then, label %if.end

if.then:                                          ; preds = %entry
  store i32 0, ptr %retval, align 4
  br label %return

if.end:                                           ; preds = %entry
  %m_data2 = getelementptr inbounds %class.vector.6, ptr %this1, i32 0, i32 0
  %1 = load ptr, ptr %m_data2, align 8
  %arrayidx = getelementptr inbounds i32, ptr %1, i64 -1
  %2 = load i32, ptr %arrayidx, align 4
  store i32 %2, ptr %retval, align 4
  br label %return

return:                                           ; preds = %if.end, %if.then
  %3 = load i32, ptr %retval, align 4
  ret i32 %3
}

; Function Attrs: mustprogress nounwind uwtable
define linkonce_odr hidden noundef nonnull align 4 dereferenceable(4) ptr @_ZN6vectorIjLb0EjEixEj(ptr noundef nonnull align 8 dereferenceable(8) %this, i32 noundef %idx) #4 comdat align 2 {
entry:
  %this.addr = alloca ptr, align 8
  %idx.addr = alloca i32, align 4
  store ptr %this, ptr %this.addr, align 8
  store i32 %idx, ptr %idx.addr, align 4
  %this1 = load ptr, ptr %this.addr, align 8
  %m_data = getelementptr inbounds %class.vector.6, ptr %this1, i32 0, i32 0
  %0 = load ptr, ptr %m_data, align 8
  %1 = load i32, ptr %idx.addr, align 4
  %idxprom = zext i32 %1 to i64
  %arrayidx = getelementptr inbounds i32, ptr %0, i64 %idxprom
  ret ptr %arrayidx
}

; Function Attrs: mustprogress uwtable
define hidden void @_ZN2pb6solver18ensure_parity_sizeEj(ptr noundef nonnull align 8 dereferenceable(1049) %this, i32 noundef %v) #5 align 2 {
entry:
  %this.addr = alloca ptr, align 8
  %v.addr = alloca i32, align 4
  store ptr %this, ptr %this.addr, align 8
  store i32 %v, ptr %v.addr, align 4
  %this1 = load ptr, ptr %this.addr, align 8
  %m_parity_marks = getelementptr inbounds %"class.pb::solver", ptr %this1, i32 0, i32 26
  %call = call noundef i32 @_ZNK6vectorIjLb0EjE4sizeEv(ptr noundef nonnull align 8 dereferenceable(8) %m_parity_marks)
  %0 = load i32, ptr %v.addr, align 4
  %cmp = icmp ule i32 %call, %0
  br i1 %cmp, label %if.then, label %if.end

if.then:                                          ; preds = %entry
  %m_parity_marks2 = getelementptr inbounds %"class.pb::solver", ptr %this1, i32 0, i32 26
  %1 = load i32, ptr %v.addr, align 4
  %add = add i32 %1, 1
  call void (ptr, i32, i32, ...) @_ZN6vectorIjLb0EjE6resizeIiEEvjT_z(ptr noundef nonnull align 8 dereferenceable(8) %m_parity_marks2, i32 noundef %add, i32 noundef 0)
  br label %if.end

if.end:                                           ; preds = %if.then, %entry
  ret void
}

; Function Attrs: mustprogress uwtable
define hidden void @_ZN2pb6solver12reset_parityEj(ptr noundef nonnull align 8 dereferenceable(1049) %this, i32 noundef %v) #5 align 2 {
entry:
  %this.addr = alloca ptr, align 8
  %v.addr = alloca i32, align 4
  store ptr %this, ptr %this.addr, align 8
  store i32 %v, ptr %v.addr, align 4
  %this1 = load ptr, ptr %this.addr, align 8
  %0 = load i32, ptr %v.addr, align 4
  call void @_ZN2pb6solver18ensure_parity_sizeEj(ptr noundef nonnull align 8 dereferenceable(1049) %this1, i32 noundef %0)
  %m_parity_marks = getelementptr inbounds %"class.pb::solver", ptr %this1, i32 0, i32 26
  %1 = load i32, ptr %v.addr, align 4
  %call = call noundef nonnull align 4 dereferenceable(4) ptr @_ZN6vectorIjLb0EjEixEj(ptr noundef nonnull align 8 dereferenceable(8) %m_parity_marks, i32 noundef %1)
  store i32 0, ptr %call, align 4
  ret void
}