; Function Attrs: mustprogress uwtable
define hidden void @_ZN2pb6solver12reset_parityEj(ptr noundef nonnull align 8 dereferenceable(1049) %this, i32 noundef %v) local_unnamed_addr #3 align 2 {
entry:
  %m_parity_marks.i = getelementptr inbounds i8, ptr %this, i64 856
  %0 = load ptr, ptr %m_parity_marks.i, align 8
  %cmp.i.i = icmp eq ptr %0, null
  br i1 %cmp.i.i, label %_ZNK6vectorIjLb0EjE4sizeEv.exit.i.i, label %_ZNK6vectorIjLb0EjE4sizeEv.exit.i

_ZNK6vectorIjLb0EjE4sizeEv.exit.i:                ; preds = %entry
  %arrayidx.i.i = getelementptr inbounds i8, ptr %0, i64 -4
  %1 = load i32, ptr %arrayidx.i.i, align 4
  %cmp.not.i = icmp ugt i32 %1, %v
  br i1 %cmp.not.i, label %_ZN2pb6solver18ensure_parity_sizeEj.exit, label %_ZNK6vectorIjLb0EjE4sizeEv.exit.thread.i.i

_ZNK6vectorIjLb0EjE4sizeEv.exit.i.i:              ; preds = %entry
  %add5.i = add i32 %v, 1
  %cmp.not.not.i.i = icmp eq i32 %add5.i, 0
  br i1 %cmp.not.not.i.i, label %_ZN2pb6solver18ensure_parity_sizeEj.exit, label %while.cond.i.i.preheader

_ZNK6vectorIjLb0EjE4sizeEv.exit.thread.i.i:       ; preds = %_ZNK6vectorIjLb0EjE4sizeEv.exit.i
  %add.i = add i32 %v, 1
  %cmp.not15.i.i = icmp ult i32 %1, %add.i
  br i1 %cmp.not15.i.i, label %while.cond.i.i.preheader, label %if.then.i.i.i

while.cond.i.i.preheader:                         ; preds = %_ZNK6vectorIjLb0EjE4sizeEv.exit.i.i, %_ZNK6vectorIjLb0EjE4sizeEv.exit.thread.i.i
  %add7.i.ph = phi i32 [ %add.i, %_ZNK6vectorIjLb0EjE4sizeEv.exit.thread.i.i ], [ %add5.i, %_ZNK6vectorIjLb0EjE4sizeEv.exit.i.i ]
  %.ph = phi ptr [ %0, %_ZNK6vectorIjLb0EjE4sizeEv.exit.thread.i.i ], [ null, %_ZNK6vectorIjLb0EjE4sizeEv.exit.i.i ]
  %retval.0.i16.i.i.ph = phi i32 [ %1, %_ZNK6vectorIjLb0EjE4sizeEv.exit.thread.i.i ], [ 0, %_ZNK6vectorIjLb0EjE4sizeEv.exit.i.i ]
  br label %while.cond.i.i

if.then.i.i.i:                                    ; preds = %_ZNK6vectorIjLb0EjE4sizeEv.exit.thread.i.i
  store i32 %add.i, ptr %arrayidx.i.i, align 4
  br label %_ZN2pb6solver18ensure_parity_sizeEj.exit

while.cond.i.i:                                   ; preds = %while.cond.i.i.preheader, %while.body.i.i
  %2 = phi ptr [ %.pr.pre.i.i, %while.body.i.i ], [ %.ph, %while.cond.i.i.preheader ]
  %cmp.i10.i.i = icmp eq ptr %2, null
  br i1 %cmp.i10.i.i, label %_ZNK6vectorIjLb0EjE8capacityEv.exit.i.i, label %if.end.i11.i.i

if.end.i11.i.i:                                   ; preds = %while.cond.i.i
  %arrayidx.i12.i.i = getelementptr inbounds i8, ptr %2, i64 -8
  %3 = load i32, ptr %arrayidx.i12.i.i, align 4
  br label %_ZNK6vectorIjLb0EjE8capacityEv.exit.i.i

_ZNK6vectorIjLb0EjE8capacityEv.exit.i.i:          ; preds = %if.end.i11.i.i, %while.cond.i.i
  %retval.0.i13.i.i = phi i32 [ %3, %if.end.i11.i.i ], [ 0, %while.cond.i.i ]
  %cmp3.i.i = icmp ult i32 %retval.0.i13.i.i, %add7.i.ph
  br i1 %cmp3.i.i, label %while.body.i.i, label %while.end.i.i

while.body.i.i:                                   ; preds = %_ZNK6vectorIjLb0EjE8capacityEv.exit.i.i
  tail call void @_ZN6vectorIjLb0EjE13expand_vectorEv(ptr noundef nonnull align 8 dereferenceable(8) %m_parity_marks.i)
  %.pr.pre.i.i = load ptr, ptr %m_parity_marks.i, align 8
  br label %while.cond.i.i, !llvm.loop !27

while.end.i.i:                                    ; preds = %_ZNK6vectorIjLb0EjE8capacityEv.exit.i.i
  %arrayidx.i2.i = getelementptr inbounds i8, ptr %2, i64 -4
  store i32 %add7.i.ph, ptr %arrayidx.i2.i, align 4
  %cmp8.not17.i.i = icmp eq i32 %retval.0.i16.i.i.ph, %add7.i.ph
  br i1 %cmp8.not17.i.i, label %_ZN2pb6solver18ensure_parity_sizeEj.exit, label %for.body.preheader.i.i

for.body.preheader.i.i:                           ; preds = %while.end.i.i
  %idx.ext6.i.i = zext i32 %add7.i.ph to i64
  %4 = load ptr, ptr %m_parity_marks.i, align 8
  %idx.ext.i.i = zext i32 %retval.0.i16.i.i.ph to i64
  %add.ptr.i.i = getelementptr i32, ptr %4, i64 %idx.ext.i.i
  %5 = sub nsw i64 %idx.ext6.i.i, %idx.ext.i.i
  %6 = shl nsw i64 %5, 2
  tail call void @llvm.memset.p0.i64(ptr align 4 %add.ptr.i.i, i8 0, i64 %6, i1 false)
  br label %_ZN2pb6solver18ensure_parity_sizeEj.exit

_ZN2pb6solver18ensure_parity_sizeEj.exit:         ; preds = %_ZNK6vectorIjLb0EjE4sizeEv.exit.i, %_ZNK6vectorIjLb0EjE4sizeEv.exit.i.i, %if.then.i.i.i, %while.end.i.i, %for.body.preheader.i.i
  %7 = load ptr, ptr %m_parity_marks.i, align 8
  %idxprom.i = zext i32 %v to i64
  %arrayidx.i = getelementptr inbounds i32, ptr %7, i64 %idxprom.i
  store i32 0, ptr %arrayidx.i, align 4
  ret void
}